
a.out:     file format elf64-x86-64


Disassembly of section .init:

0000000000400e38 <_init>:
  400e38:	48 83 ec 08          	sub    rsp,0x8
  400e3c:	48 8b 05 b5 11 20 00 	mov    rax,QWORD PTR [rip+0x2011b5]        # 601ff8 <_DYNAMIC+0x200>
  400e43:	48 85 c0             	test   rax,rax
  400e46:	74 05                	je     400e4d <_init+0x15>
  400e48:	e8 03 02 00 00       	call   401050 <mmap@plt+0x10>
  400e4d:	48 83 c4 08          	add    rsp,0x8
  400e51:	c3                   	ret    

Disassembly of section .plt:

0000000000400e60 <printf@plt-0x10>:
  400e60:	ff 35 a2 11 20 00    	push   QWORD PTR [rip+0x2011a2]        # 602008 <_GLOBAL_OFFSET_TABLE_+0x8>
  400e66:	ff 25 a4 11 20 00    	jmp    QWORD PTR [rip+0x2011a4]        # 602010 <_GLOBAL_OFFSET_TABLE_+0x10>
  400e6c:	0f 1f 40 00          	nop    DWORD PTR [rax+0x0]

0000000000400e70 <printf@plt>:
  400e70:	ff 25 a2 11 20 00    	jmp    QWORD PTR [rip+0x2011a2]        # 602018 <_GLOBAL_OFFSET_TABLE_+0x18>
  400e76:	68 00 00 00 00       	push   0x0
  400e7b:	e9 e0 ff ff ff       	jmp    400e60 <_init+0x28>

0000000000400e80 <close@plt>:
  400e80:	ff 25 9a 11 20 00    	jmp    QWORD PTR [rip+0x20119a]        # 602020 <_GLOBAL_OFFSET_TABLE_+0x20>
  400e86:	68 01 00 00 00       	push   0x1
  400e8b:	e9 d0 ff ff ff       	jmp    400e60 <_init+0x28>

0000000000400e90 <_ZNSt8ios_base4InitC1Ev@plt>:
  400e90:	ff 25 92 11 20 00    	jmp    QWORD PTR [rip+0x201192]        # 602028 <_GLOBAL_OFFSET_TABLE_+0x28>
  400e96:	68 02 00 00 00       	push   0x2
  400e9b:	e9 c0 ff ff ff       	jmp    400e60 <_init+0x28>

0000000000400ea0 <fopen@plt>:
  400ea0:	ff 25 8a 11 20 00    	jmp    QWORD PTR [rip+0x20118a]        # 602030 <_GLOBAL_OFFSET_TABLE_+0x30>
  400ea6:	68 03 00 00 00       	push   0x3
  400eab:	e9 b0 ff ff ff       	jmp    400e60 <_init+0x28>

0000000000400eb0 <__libc_start_main@plt>:
  400eb0:	ff 25 82 11 20 00    	jmp    QWORD PTR [rip+0x201182]        # 602038 <_GLOBAL_OFFSET_TABLE_+0x38>
  400eb6:	68 04 00 00 00       	push   0x4
  400ebb:	e9 a0 ff ff ff       	jmp    400e60 <_init+0x28>

0000000000400ec0 <_ZSt24__throw_invalid_argumentPKc@plt>:
  400ec0:	ff 25 7a 11 20 00    	jmp    QWORD PTR [rip+0x20117a]        # 602040 <_GLOBAL_OFFSET_TABLE_+0x40>
  400ec6:	68 05 00 00 00       	push   0x5
  400ecb:	e9 90 ff ff ff       	jmp    400e60 <_init+0x28>

0000000000400ed0 <__cxa_atexit@plt>:
  400ed0:	ff 25 72 11 20 00    	jmp    QWORD PTR [rip+0x201172]        # 602048 <_GLOBAL_OFFSET_TABLE_+0x48>
  400ed6:	68 06 00 00 00       	push   0x6
  400edb:	e9 80 ff ff ff       	jmp    400e60 <_init+0x28>

0000000000400ee0 <_ZSt20__throw_out_of_rangePKc@plt>:
  400ee0:	ff 25 6a 11 20 00    	jmp    QWORD PTR [rip+0x20116a]        # 602050 <_GLOBAL_OFFSET_TABLE_+0x50>
  400ee6:	68 07 00 00 00       	push   0x7
  400eeb:	e9 70 ff ff ff       	jmp    400e60 <_init+0x28>

0000000000400ef0 <_ZNSt8ios_base4InitD1Ev@plt>:
  400ef0:	ff 25 62 11 20 00    	jmp    QWORD PTR [rip+0x201162]        # 602058 <_GLOBAL_OFFSET_TABLE_+0x58>
  400ef6:	68 08 00 00 00       	push   0x8
  400efb:	e9 60 ff ff ff       	jmp    400e60 <_init+0x28>

0000000000400f00 <_ZStlsISt11char_traitsIcEERSt13basic_ostreamIcT_ES5_PKc@plt>:
  400f00:	ff 25 5a 11 20 00    	jmp    QWORD PTR [rip+0x20115a]        # 602060 <_GLOBAL_OFFSET_TABLE_+0x60>
  400f06:	68 09 00 00 00       	push   0x9
  400f0b:	e9 50 ff ff ff       	jmp    400e60 <_init+0x28>

0000000000400f10 <_ZNSt7__cxx1112basic_stringIcSt11char_traitsIcESaIcEEC1Ev@plt>:
  400f10:	ff 25 52 11 20 00    	jmp    QWORD PTR [rip+0x201152]        # 602068 <_GLOBAL_OFFSET_TABLE_+0x68>
  400f16:	68 0a 00 00 00       	push   0xa
  400f1b:	e9 40 ff ff ff       	jmp    400e60 <_init+0x28>

0000000000400f20 <_ZNSt7__cxx1112basic_stringIcSt11char_traitsIcESaIcEED1Ev@plt>:
  400f20:	ff 25 4a 11 20 00    	jmp    QWORD PTR [rip+0x20114a]        # 602070 <_GLOBAL_OFFSET_TABLE_+0x70>
  400f26:	68 0b 00 00 00       	push   0xb
  400f2b:	e9 30 ff ff ff       	jmp    400e60 <_init+0x28>

0000000000400f30 <cs_disasm@plt>:
  400f30:	ff 25 42 11 20 00    	jmp    QWORD PTR [rip+0x201142]        # 602078 <_GLOBAL_OFFSET_TABLE_+0x78>
  400f36:	68 0c 00 00 00       	push   0xc
  400f3b:	e9 20 ff ff ff       	jmp    400e60 <_init+0x28>

0000000000400f40 <sprintf@plt>:
  400f40:	ff 25 3a 11 20 00    	jmp    QWORD PTR [rip+0x20113a]        # 602080 <_GLOBAL_OFFSET_TABLE_+0x80>
  400f46:	68 0d 00 00 00       	push   0xd
  400f4b:	e9 10 ff ff ff       	jmp    400e60 <_init+0x28>

0000000000400f50 <fgetc@plt>:
  400f50:	ff 25 32 11 20 00    	jmp    QWORD PTR [rip+0x201132]        # 602088 <_GLOBAL_OFFSET_TABLE_+0x88>
  400f56:	68 0e 00 00 00       	push   0xe
  400f5b:	e9 00 ff ff ff       	jmp    400e60 <_init+0x28>

0000000000400f60 <__errno_location@plt>:
  400f60:	ff 25 2a 11 20 00    	jmp    QWORD PTR [rip+0x20112a]        # 602090 <_GLOBAL_OFFSET_TABLE_+0x90>
  400f66:	68 0f 00 00 00       	push   0xf
  400f6b:	e9 f0 fe ff ff       	jmp    400e60 <_init+0x28>

0000000000400f70 <isalpha@plt>:
  400f70:	ff 25 22 11 20 00    	jmp    QWORD PTR [rip+0x201122]        # 602098 <_GLOBAL_OFFSET_TABLE_+0x98>
  400f76:	68 10 00 00 00       	push   0x10
  400f7b:	e9 e0 fe ff ff       	jmp    400e60 <_init+0x28>

0000000000400f80 <__stack_chk_fail@plt>:
  400f80:	ff 25 1a 11 20 00    	jmp    QWORD PTR [rip+0x20111a]        # 6020a0 <_GLOBAL_OFFSET_TABLE_+0xa0>
  400f86:	68 11 00 00 00       	push   0x11
  400f8b:	e9 d0 fe ff ff       	jmp    400e60 <_init+0x28>

0000000000400f90 <cs_open@plt>:
  400f90:	ff 25 12 11 20 00    	jmp    QWORD PTR [rip+0x201112]        # 6020a8 <_GLOBAL_OFFSET_TABLE_+0xa8>
  400f96:	68 12 00 00 00       	push   0x12
  400f9b:	e9 c0 fe ff ff       	jmp    400e60 <_init+0x28>

0000000000400fa0 <_ZNSolsEPFRSoS_E@plt>:
  400fa0:	ff 25 0a 11 20 00    	jmp    QWORD PTR [rip+0x20110a]        # 6020b0 <_GLOBAL_OFFSET_TABLE_+0xb0>
  400fa6:	68 13 00 00 00       	push   0x13
  400fab:	e9 b0 fe ff ff       	jmp    400e60 <_init+0x28>

0000000000400fb0 <fclose@plt>:
  400fb0:	ff 25 02 11 20 00    	jmp    QWORD PTR [rip+0x201102]        # 6020b8 <_GLOBAL_OFFSET_TABLE_+0xb8>
  400fb6:	68 14 00 00 00       	push   0x14
  400fbb:	e9 a0 fe ff ff       	jmp    400e60 <_init+0x28>

0000000000400fc0 <_ZNKSt7__cxx1112basic_stringIcSt11char_traitsIcESaIcEE5c_strEv@plt>:
  400fc0:	ff 25 fa 10 20 00    	jmp    QWORD PTR [rip+0x2010fa]        # 6020c0 <_GLOBAL_OFFSET_TABLE_+0xc0>
  400fc6:	68 15 00 00 00       	push   0x15
  400fcb:	e9 90 fe ff ff       	jmp    400e60 <_init+0x28>

0000000000400fd0 <_ZSt4endlIcSt11char_traitsIcEERSt13basic_ostreamIT_T0_ES6_@plt>:
  400fd0:	ff 25 f2 10 20 00    	jmp    QWORD PTR [rip+0x2010f2]        # 6020c8 <_GLOBAL_OFFSET_TABLE_+0xc8>
  400fd6:	68 16 00 00 00       	push   0x16
  400fdb:	e9 80 fe ff ff       	jmp    400e60 <_init+0x28>

0000000000400fe0 <__gxx_personality_v0@plt>:
  400fe0:	ff 25 ea 10 20 00    	jmp    QWORD PTR [rip+0x2010ea]        # 6020d0 <_GLOBAL_OFFSET_TABLE_+0xd0>
  400fe6:	68 17 00 00 00       	push   0x17
  400feb:	e9 70 fe ff ff       	jmp    400e60 <_init+0x28>

0000000000400ff0 <_Unwind_Resume@plt>:
  400ff0:	ff 25 e2 10 20 00    	jmp    QWORD PTR [rip+0x2010e2]        # 6020d8 <_GLOBAL_OFFSET_TABLE_+0xd8>
  400ff6:	68 18 00 00 00       	push   0x18
  400ffb:	e9 60 fe ff ff       	jmp    400e60 <_init+0x28>

0000000000401000 <popen@plt>:
  401000:	ff 25 da 10 20 00    	jmp    QWORD PTR [rip+0x2010da]        # 6020e0 <_GLOBAL_OFFSET_TABLE_+0xe0>
  401006:	68 19 00 00 00       	push   0x19
  40100b:	e9 50 fe ff ff       	jmp    400e60 <_init+0x28>

0000000000401010 <strtoul@plt>:
  401010:	ff 25 d2 10 20 00    	jmp    QWORD PTR [rip+0x2010d2]        # 6020e8 <_GLOBAL_OFFSET_TABLE_+0xe8>
  401016:	68 1a 00 00 00       	push   0x1a
  40101b:	e9 40 fe ff ff       	jmp    400e60 <_init+0x28>

0000000000401020 <_ZNSt7__cxx1112basic_stringIcSt11char_traitsIcESaIcEEpLEc@plt>:
  401020:	ff 25 ca 10 20 00    	jmp    QWORD PTR [rip+0x2010ca]        # 6020f0 <_GLOBAL_OFFSET_TABLE_+0xf0>
  401026:	68 1b 00 00 00       	push   0x1b
  40102b:	e9 30 fe ff ff       	jmp    400e60 <_init+0x28>

0000000000401030 <open@plt>:
  401030:	ff 25 c2 10 20 00    	jmp    QWORD PTR [rip+0x2010c2]        # 6020f8 <_GLOBAL_OFFSET_TABLE_+0xf8>
  401036:	68 1c 00 00 00       	push   0x1c
  40103b:	e9 20 fe ff ff       	jmp    400e60 <_init+0x28>

0000000000401040 <mmap@plt>:
  401040:	ff 25 ba 10 20 00    	jmp    QWORD PTR [rip+0x2010ba]        # 602100 <_GLOBAL_OFFSET_TABLE_+0x100>
  401046:	68 1d 00 00 00       	push   0x1d
  40104b:	e9 10 fe ff ff       	jmp    400e60 <_init+0x28>

Disassembly of section .plt.got:

0000000000401050 <.plt.got>:
  401050:	ff 25 a2 0f 20 00    	jmp    QWORD PTR [rip+0x200fa2]        # 601ff8 <_DYNAMIC+0x200>
  401056:	66 90                	xchg   ax,ax

Disassembly of section .text:

0000000000401060 <_start>:
  401060:	31 ed                	xor    ebp,ebp
  401062:	49 89 d1             	mov    r9,rdx
  401065:	5e                   	pop    rsi
  401066:	48 89 e2             	mov    rdx,rsp
  401069:	48 83 e4 f0          	and    rsp,0xfffffffffffffff0
  40106d:	50                   	push   rax
  40106e:	54                   	push   rsp
  40106f:	49 c7 c0 60 18 40 00 	mov    r8,0x401860
  401076:	48 c7 c1 f0 17 40 00 	mov    rcx,0x4017f0
  40107d:	48 c7 c7 56 11 40 00 	mov    rdi,0x401156
  401084:	e8 27 fe ff ff       	call   400eb0 <__libc_start_main@plt>
  401089:	f4                   	hlt    
  40108a:	66 0f 1f 44 00 00    	nop    WORD PTR [rax+rax*1+0x0]

0000000000401090 <deregister_tm_clones>:
  401090:	b8 1f 21 60 00       	mov    eax,0x60211f
  401095:	55                   	push   rbp
  401096:	48 2d 18 21 60 00    	sub    rax,0x602118
  40109c:	48 83 f8 0e          	cmp    rax,0xe
  4010a0:	48 89 e5             	mov    rbp,rsp
  4010a3:	76 1b                	jbe    4010c0 <deregister_tm_clones+0x30>
  4010a5:	b8 00 00 00 00       	mov    eax,0x0
  4010aa:	48 85 c0             	test   rax,rax
  4010ad:	74 11                	je     4010c0 <deregister_tm_clones+0x30>
  4010af:	5d                   	pop    rbp
  4010b0:	bf 18 21 60 00       	mov    edi,0x602118
  4010b5:	ff e0                	jmp    rax
  4010b7:	66 0f 1f 84 00 00 00 	nop    WORD PTR [rax+rax*1+0x0]
  4010be:	00 00 
  4010c0:	5d                   	pop    rbp
  4010c1:	c3                   	ret    
  4010c2:	0f 1f 40 00          	nop    DWORD PTR [rax+0x0]
  4010c6:	66 2e 0f 1f 84 00 00 	nop    WORD PTR cs:[rax+rax*1+0x0]
  4010cd:	00 00 00 

00000000004010d0 <register_tm_clones>:
  4010d0:	be 18 21 60 00       	mov    esi,0x602118
  4010d5:	55                   	push   rbp
  4010d6:	48 81 ee 18 21 60 00 	sub    rsi,0x602118
  4010dd:	48 c1 fe 03          	sar    rsi,0x3
  4010e1:	48 89 e5             	mov    rbp,rsp
  4010e4:	48 89 f0             	mov    rax,rsi
  4010e7:	48 c1 e8 3f          	shr    rax,0x3f
  4010eb:	48 01 c6             	add    rsi,rax
  4010ee:	48 d1 fe             	sar    rsi,1
  4010f1:	74 15                	je     401108 <register_tm_clones+0x38>
  4010f3:	b8 00 00 00 00       	mov    eax,0x0
  4010f8:	48 85 c0             	test   rax,rax
  4010fb:	74 0b                	je     401108 <register_tm_clones+0x38>
  4010fd:	5d                   	pop    rbp
  4010fe:	bf 18 21 60 00       	mov    edi,0x602118
  401103:	ff e0                	jmp    rax
  401105:	0f 1f 00             	nop    DWORD PTR [rax]
  401108:	5d                   	pop    rbp
  401109:	c3                   	ret    
  40110a:	66 0f 1f 44 00 00    	nop    WORD PTR [rax+rax*1+0x0]

0000000000401110 <__do_global_dtors_aux>:
  401110:	80 3d 19 11 20 00 00 	cmp    BYTE PTR [rip+0x201119],0x0        # 602230 <completed.7594>
  401117:	75 11                	jne    40112a <__do_global_dtors_aux+0x1a>
  401119:	55                   	push   rbp
  40111a:	48 89 e5             	mov    rbp,rsp
  40111d:	e8 6e ff ff ff       	call   401090 <deregister_tm_clones>
  401122:	5d                   	pop    rbp
  401123:	c6 05 06 11 20 00 01 	mov    BYTE PTR [rip+0x201106],0x1        # 602230 <completed.7594>
  40112a:	f3 c3                	repz ret 
  40112c:	0f 1f 40 00          	nop    DWORD PTR [rax+0x0]

0000000000401130 <frame_dummy>:
  401130:	bf f0 1d 60 00       	mov    edi,0x601df0
  401135:	48 83 3f 00          	cmp    QWORD PTR [rdi],0x0
  401139:	75 05                	jne    401140 <frame_dummy+0x10>
  40113b:	eb 93                	jmp    4010d0 <register_tm_clones>
  40113d:	0f 1f 00             	nop    DWORD PTR [rax]
  401140:	b8 00 00 00 00       	mov    eax,0x0
  401145:	48 85 c0             	test   rax,rax
  401148:	74 f1                	je     40113b <frame_dummy+0xb>
  40114a:	55                   	push   rbp
  40114b:	48 89 e5             	mov    rbp,rsp
  40114e:	ff d0                	call   rax
  401150:	5d                   	pop    rbp
  401151:	e9 7a ff ff ff       	jmp    4010d0 <register_tm_clones>

0000000000401156 <main>:
  401156:	55                   	push   rbp
  401157:	48 89 e5             	mov    rbp,rsp
  40115a:	53                   	push   rbx
  40115b:	48 81 ec e8 00 00 00 	sub    rsp,0xe8
  401162:	89 bd 1c ff ff ff    	mov    DWORD PTR [rbp-0xe4],edi
  401168:	48 89 b5 10 ff ff ff 	mov    QWORD PTR [rbp-0xf0],rsi
  40116f:	64 48 8b 04 25 28 00 	mov    rax,QWORD PTR fs:0x28
  401176:	00 00 
  401178:	48 89 45 e8          	mov    QWORD PTR [rbp-0x18],rax
  40117c:	31 c0                	xor    eax,eax
  40117e:	83 bd 1c ff ff ff 02 	cmp    DWORD PTR [rbp-0xe4],0x2
  401185:	74 48                	je     4011cf <main+0x79>
  401187:	48 8b 85 10 ff ff ff 	mov    rax,QWORD PTR [rbp-0xf0]
  40118e:	48 8b 18             	mov    rbx,QWORD PTR [rax]
  401191:	be 28 19 40 00       	mov    esi,0x401928
  401196:	bf 20 21 60 00       	mov    edi,0x602120
  40119b:	e8 60 fd ff ff       	call   400f00 <_ZStlsISt11char_traitsIcEERSt13basic_ostreamIcT_ES5_PKc@plt>
  4011a0:	48 89 de             	mov    rsi,rbx
  4011a3:	48 89 c7             	mov    rdi,rax
  4011a6:	e8 55 fd ff ff       	call   400f00 <_ZStlsISt11char_traitsIcEERSt13basic_ostreamIcT_ES5_PKc@plt>
  4011ab:	be 2b 19 40 00       	mov    esi,0x40192b
  4011b0:	48 89 c7             	mov    rdi,rax
  4011b3:	e8 48 fd ff ff       	call   400f00 <_ZStlsISt11char_traitsIcEERSt13basic_ostreamIcT_ES5_PKc@plt>
  4011b8:	be d0 0f 40 00       	mov    esi,0x400fd0
  4011bd:	48 89 c7             	mov    rdi,rax
  4011c0:	e8 db fd ff ff       	call   400fa0 <_ZNSolsEPFRSoS_E@plt>
  4011c5:	bb ff ff ff ff       	mov    ebx,0xffffffff
  4011ca:	e9 8f 04 00 00       	jmp    40165e <main+0x508>
  4011cf:	48 8b 85 10 ff ff ff 	mov    rax,QWORD PTR [rbp-0xf0]
  4011d6:	48 8b 40 08          	mov    rax,QWORD PTR [rax+0x8]
  4011da:	48 89 85 50 ff ff ff 	mov    QWORD PTR [rbp-0xb0],rax
  4011e1:	48 c7 85 38 ff ff ff 	mov    QWORD PTR [rbp-0xc8],0x0
  4011e8:	00 00 00 00 
  4011ec:	48 8d 45 90          	lea    rax,[rbp-0x70]
  4011f0:	48 89 c7             	mov    rdi,rax
  4011f3:	e8 18 fd ff ff       	call   400f10 <_ZNSt7__cxx1112basic_stringIcSt11char_traitsIcESaIcEEC1Ev@plt>
  4011f8:	48 8b 85 50 ff ff ff 	mov    rax,QWORD PTR [rbp-0xb0]
  4011ff:	be 3a 19 40 00       	mov    esi,0x40193a
  401204:	48 89 c7             	mov    rdi,rax
  401207:	e8 94 fc ff ff       	call   400ea0 <fopen@plt>
  40120c:	48 89 85 58 ff ff ff 	mov    QWORD PTR [rbp-0xa8],rax
  401213:	48 83 bd 58 ff ff ff 	cmp    QWORD PTR [rbp-0xa8],0x0
  40121a:	00 
  40121b:	75 26                	jne    401243 <main+0xed>
  40121d:	be 40 19 40 00       	mov    esi,0x401940
  401222:	bf 20 21 60 00       	mov    edi,0x602120
  401227:	e8 d4 fc ff ff       	call   400f00 <_ZStlsISt11char_traitsIcEERSt13basic_ostreamIcT_ES5_PKc@plt>
  40122c:	be d0 0f 40 00       	mov    esi,0x400fd0
  401231:	48 89 c7             	mov    rdi,rax
  401234:	e8 67 fd ff ff       	call   400fa0 <_ZNSolsEPFRSoS_E@plt>
  401239:	bb ff ff ff ff       	mov    ebx,0xffffffff
  40123e:	e9 0f 04 00 00       	jmp    401652 <main+0x4fc>
  401243:	48 8b 85 58 ff ff ff 	mov    rax,QWORD PTR [rbp-0xa8]
  40124a:	48 89 c7             	mov    rdi,rax
  40124d:	e8 fe fc ff ff       	call   400f50 <fgetc@plt>
  401252:	83 f8 ff             	cmp    eax,0xffffffff
  401255:	0f 95 c0             	setne  al
  401258:	84 c0                	test   al,al
  40125a:	74 0a                	je     401266 <main+0x110>
  40125c:	48 83 85 38 ff ff ff 	add    QWORD PTR [rbp-0xc8],0x1
  401263:	01 
  401264:	eb dd                	jmp    401243 <main+0xed>
  401266:	48 8b 85 58 ff ff ff 	mov    rax,QWORD PTR [rbp-0xa8]
  40126d:	48 89 c7             	mov    rdi,rax
  401270:	e8 3b fd ff ff       	call   400fb0 <fclose@plt>
  401275:	48 8b 85 50 ff ff ff 	mov    rax,QWORD PTR [rbp-0xb0]
  40127c:	ba 00 01 00 00       	mov    edx,0x100
  401281:	be 00 00 00 00       	mov    esi,0x0
  401286:	48 89 c7             	mov    rdi,rax
  401289:	b8 00 00 00 00       	mov    eax,0x0
  40128e:	e8 9d fd ff ff       	call   401030 <open@plt>
  401293:	89 85 24 ff ff ff    	mov    DWORD PTR [rbp-0xdc],eax
  401299:	83 bd 24 ff ff ff ff 	cmp    DWORD PTR [rbp-0xdc],0xffffffff
  4012a0:	75 26                	jne    4012c8 <main+0x172>
  4012a2:	be 60 19 40 00       	mov    esi,0x401960
  4012a7:	bf 20 21 60 00       	mov    edi,0x602120
  4012ac:	e8 4f fc ff ff       	call   400f00 <_ZStlsISt11char_traitsIcEERSt13basic_ostreamIcT_ES5_PKc@plt>
  4012b1:	be d0 0f 40 00       	mov    esi,0x400fd0
  4012b6:	48 89 c7             	mov    rdi,rax
  4012b9:	e8 e2 fc ff ff       	call   400fa0 <_ZNSolsEPFRSoS_E@plt>
  4012be:	bb ff ff ff ff       	mov    ebx,0xffffffff
  4012c3:	e9 8a 03 00 00       	jmp    401652 <main+0x4fc>
  4012c8:	8b 95 24 ff ff ff    	mov    edx,DWORD PTR [rbp-0xdc]
  4012ce:	48 8b 85 38 ff ff ff 	mov    rax,QWORD PTR [rbp-0xc8]
  4012d5:	41 b9 00 00 00 00    	mov    r9d,0x0
  4012db:	41 89 d0             	mov    r8d,edx
  4012de:	b9 02 00 00 00       	mov    ecx,0x2
  4012e3:	ba 01 00 00 00       	mov    edx,0x1
  4012e8:	48 89 c6             	mov    rsi,rax
  4012eb:	bf 00 00 00 00       	mov    edi,0x0
  4012f0:	e8 4b fd ff ff       	call   401040 <mmap@plt>
  4012f5:	48 89 85 60 ff ff ff 	mov    QWORD PTR [rbp-0xa0],rax
  4012fc:	48 83 bd 60 ff ff ff 	cmp    QWORD PTR [rbp-0xa0],0xffffffffffffffff
  401303:	ff 
  401304:	75 26                	jne    40132c <main+0x1d6>
  401306:	be 98 19 40 00       	mov    esi,0x401998
  40130b:	bf 20 21 60 00       	mov    edi,0x602120
  401310:	e8 eb fb ff ff       	call   400f00 <_ZStlsISt11char_traitsIcEERSt13basic_ostreamIcT_ES5_PKc@plt>
  401315:	be d0 0f 40 00       	mov    esi,0x400fd0
  40131a:	48 89 c7             	mov    rdi,rax
  40131d:	e8 7e fc ff ff       	call   400fa0 <_ZNSolsEPFRSoS_E@plt>
  401322:	bb ff ff ff ff       	mov    ebx,0xffffffff
  401327:	e9 26 03 00 00       	jmp    401652 <main+0x4fc>
  40132c:	48 8b 85 60 ff ff ff 	mov    rax,QWORD PTR [rbp-0xa0]
  401333:	48 89 85 68 ff ff ff 	mov    QWORD PTR [rbp-0x98],rax
  40133a:	48 8b 85 68 ff ff ff 	mov    rax,QWORD PTR [rbp-0x98]
  401341:	48 8b 40 18          	mov    rax,QWORD PTR [rax+0x18]
  401345:	48 89 85 70 ff ff ff 	mov    QWORD PTR [rbp-0x90],rax
  40134c:	48 8b 85 68 ff ff ff 	mov    rax,QWORD PTR [rbp-0x98]
  401353:	0f b7 40 10          	movzx  eax,WORD PTR [rax+0x10]
  401357:	3c 02                	cmp    al,0x2
  401359:	75 16                	jne    401371 <main+0x21b>
  40135b:	48 8b 85 70 ff ff ff 	mov    rax,QWORD PTR [rbp-0x90]
  401362:	48 2d 00 00 40 00    	sub    rax,0x400000
  401368:	48 89 85 40 ff ff ff 	mov    QWORD PTR [rbp-0xc0],rax
  40136f:	eb 1d                	jmp    40138e <main+0x238>
  401371:	48 8b 85 68 ff ff ff 	mov    rax,QWORD PTR [rbp-0x98]
  401378:	0f b7 40 10          	movzx  eax,WORD PTR [rax+0x10]
  40137c:	3c 03                	cmp    al,0x3
  40137e:	75 0e                	jne    40138e <main+0x238>
  401380:	48 8b 85 70 ff ff ff 	mov    rax,QWORD PTR [rbp-0x90]
  401387:	48 89 85 40 ff ff ff 	mov    QWORD PTR [rbp-0xc0],rax
  40138e:	8b 85 24 ff ff ff    	mov    eax,DWORD PTR [rbp-0xdc]
  401394:	89 c7                	mov    edi,eax
  401396:	e8 e5 fa ff ff       	call   400e80 <close@plt>
  40139b:	48 8b 95 50 ff ff ff 	mov    rdx,QWORD PTR [rbp-0xb0]
  4013a2:	48 8d 45 b0          	lea    rax,[rbp-0x50]
  4013a6:	be c9 19 40 00       	mov    esi,0x4019c9
  4013ab:	48 89 c7             	mov    rdi,rax
  4013ae:	b8 00 00 00 00       	mov    eax,0x0
  4013b3:	e8 88 fb ff ff       	call   400f40 <sprintf@plt>
  4013b8:	48 8d 45 b0          	lea    rax,[rbp-0x50]
  4013bc:	be d1 19 40 00       	mov    esi,0x4019d1
  4013c1:	48 89 c7             	mov    rdi,rax
  4013c4:	e8 37 fc ff ff       	call   401000 <popen@plt>
  4013c9:	48 89 85 58 ff ff ff 	mov    QWORD PTR [rbp-0xa8],rax
  4013d0:	48 83 bd 58 ff ff ff 	cmp    QWORD PTR [rbp-0xa8],0x0
  4013d7:	00 
  4013d8:	75 38                	jne    401412 <main+0x2bc>
  4013da:	be d8 19 40 00       	mov    esi,0x4019d8
  4013df:	bf 20 21 60 00       	mov    edi,0x602120
  4013e4:	e8 17 fb ff ff       	call   400f00 <_ZStlsISt11char_traitsIcEERSt13basic_ostreamIcT_ES5_PKc@plt>
  4013e9:	48 89 c2             	mov    rdx,rax
  4013ec:	48 8d 45 b0          	lea    rax,[rbp-0x50]
  4013f0:	48 89 c6             	mov    rsi,rax
  4013f3:	48 89 d7             	mov    rdi,rdx
  4013f6:	e8 05 fb ff ff       	call   400f00 <_ZStlsISt11char_traitsIcEERSt13basic_ostreamIcT_ES5_PKc@plt>
  4013fb:	be d0 0f 40 00       	mov    esi,0x400fd0
  401400:	48 89 c7             	mov    rdi,rax
  401403:	e8 98 fb ff ff       	call   400fa0 <_ZNSolsEPFRSoS_E@plt>
  401408:	bb ff ff ff ff       	mov    ebx,0xffffffff
  40140d:	e9 40 02 00 00       	jmp    401652 <main+0x4fc>
  401412:	48 8b 85 58 ff ff ff 	mov    rax,QWORD PTR [rbp-0xa8]
  401419:	48 89 c7             	mov    rdi,rax
  40141c:	e8 2f fb ff ff       	call   400f50 <fgetc@plt>
  401421:	88 85 23 ff ff ff    	mov    BYTE PTR [rbp-0xdd],al
  401427:	80 bd 23 ff ff ff 20 	cmp    BYTE PTR [rbp-0xdd],0x20
  40142e:	74 24                	je     401454 <main+0x2fe>
  401430:	0f be 85 23 ff ff ff 	movsx  eax,BYTE PTR [rbp-0xdd]
  401437:	89 c7                	mov    edi,eax
  401439:	e8 32 fb ff ff       	call   400f70 <isalpha@plt>
  40143e:	85 c0                	test   eax,eax
  401440:	75 12                	jne    401454 <main+0x2fe>
  401442:	80 bd 23 ff ff ff 0a 	cmp    BYTE PTR [rbp-0xdd],0xa
  401449:	74 09                	je     401454 <main+0x2fe>
  40144b:	80 bd 23 ff ff ff 09 	cmp    BYTE PTR [rbp-0xdd],0x9
  401452:	75 17                	jne    40146b <main+0x315>
  401454:	48 8b 85 58 ff ff ff 	mov    rax,QWORD PTR [rbp-0xa8]
  40145b:	48 89 c7             	mov    rdi,rax
  40145e:	e8 ed fa ff ff       	call   400f50 <fgetc@plt>
  401463:	88 85 23 ff ff ff    	mov    BYTE PTR [rbp-0xdd],al
  401469:	eb bc                	jmp    401427 <main+0x2d1>
  40146b:	0f be 95 23 ff ff ff 	movsx  edx,BYTE PTR [rbp-0xdd]
  401472:	48 8d 45 90          	lea    rax,[rbp-0x70]
  401476:	89 d6                	mov    esi,edx
  401478:	48 89 c7             	mov    rdi,rax
  40147b:	e8 a0 fb ff ff       	call   401020 <_ZNSt7__cxx1112basic_stringIcSt11char_traitsIcESaIcEEpLEc@plt>
  401480:	80 bd 23 ff ff ff 20 	cmp    BYTE PTR [rbp-0xdd],0x20
  401487:	74 2c                	je     4014b5 <main+0x35f>
  401489:	48 8b 85 58 ff ff ff 	mov    rax,QWORD PTR [rbp-0xa8]
  401490:	48 89 c7             	mov    rdi,rax
  401493:	e8 b8 fa ff ff       	call   400f50 <fgetc@plt>
  401498:	88 85 23 ff ff ff    	mov    BYTE PTR [rbp-0xdd],al
  40149e:	0f be 95 23 ff ff ff 	movsx  edx,BYTE PTR [rbp-0xdd]
  4014a5:	48 8d 45 90          	lea    rax,[rbp-0x70]
  4014a9:	89 d6                	mov    esi,edx
  4014ab:	48 89 c7             	mov    rdi,rax
  4014ae:	e8 6d fb ff ff       	call   401020 <_ZNSt7__cxx1112basic_stringIcSt11char_traitsIcESaIcEEpLEc@plt>
  4014b3:	eb cb                	jmp    401480 <main+0x32a>
  4014b5:	48 8d 45 90          	lea    rax,[rbp-0x70]
  4014b9:	ba 0a 00 00 00       	mov    edx,0xa
  4014be:	be 00 00 00 00       	mov    esi,0x0
  4014c3:	48 89 c7             	mov    rdi,rax
  4014c6:	e8 22 02 00 00       	call   4016ed <_ZNSt7__cxx115stoulERKNS_12basic_stringIcSt11char_traitsIcESaIcEEEPmi>
  4014cb:	48 89 85 78 ff ff ff 	mov    QWORD PTR [rbp-0x88],rax
  4014d2:	48 8b 85 58 ff ff ff 	mov    rax,QWORD PTR [rbp-0xa8]
  4014d9:	48 89 c7             	mov    rdi,rax
  4014dc:	e8 cf fa ff ff       	call   400fb0 <fclose@plt>
  4014e1:	48 8b 95 60 ff ff ff 	mov    rdx,QWORD PTR [rbp-0xa0]
  4014e8:	48 8b 85 40 ff ff ff 	mov    rax,QWORD PTR [rbp-0xc0]
  4014ef:	48 01 d0             	add    rax,rdx
  4014f2:	48 89 45 80          	mov    QWORD PTR [rbp-0x80],rax
  4014f6:	48 8d 85 28 ff ff ff 	lea    rax,[rbp-0xd8]
  4014fd:	48 89 c2             	mov    rdx,rax
  401500:	be 08 00 00 00       	mov    esi,0x8
  401505:	bf 03 00 00 00       	mov    edi,0x3
  40150a:	e8 81 fa ff ff       	call   400f90 <cs_open@plt>
  40150f:	85 c0                	test   eax,eax
  401511:	0f 95 c0             	setne  al
  401514:	84 c0                	test   al,al
  401516:	74 26                	je     40153e <main+0x3e8>
  401518:	be 00 1a 40 00       	mov    esi,0x401a00
  40151d:	bf 20 21 60 00       	mov    edi,0x602120
  401522:	e8 d9 f9 ff ff       	call   400f00 <_ZStlsISt11char_traitsIcEERSt13basic_ostreamIcT_ES5_PKc@plt>
  401527:	be d0 0f 40 00       	mov    esi,0x400fd0
  40152c:	48 89 c7             	mov    rdi,rax
  40152f:	e8 6c fa ff ff       	call   400fa0 <_ZNSolsEPFRSoS_E@plt>
  401534:	bb ff ff ff ff       	mov    ebx,0xffffffff
  401539:	e9 14 01 00 00       	jmp    401652 <main+0x4fc>
  40153e:	48 8b 85 28 ff ff ff 	mov    rax,QWORD PTR [rbp-0xd8]
  401545:	48 8d bd 30 ff ff ff 	lea    rdi,[rbp-0xd0]
  40154c:	48 8b 8d 70 ff ff ff 	mov    rcx,QWORD PTR [rbp-0x90]
  401553:	48 8b 95 78 ff ff ff 	mov    rdx,QWORD PTR [rbp-0x88]
  40155a:	48 8b 75 80          	mov    rsi,QWORD PTR [rbp-0x80]
  40155e:	49 89 f9             	mov    r9,rdi
  401561:	41 b8 00 00 00 00    	mov    r8d,0x0
  401567:	48 89 c7             	mov    rdi,rax
  40156a:	e8 c1 f9 ff ff       	call   400f30 <cs_disasm@plt>
  40156f:	48 89 45 88          	mov    QWORD PTR [rbp-0x78],rax
  401573:	48 83 7d 88 00       	cmp    QWORD PTR [rbp-0x78],0x0
  401578:	75 26                	jne    4015a0 <main+0x44a>
  40157a:	be 20 1a 40 00       	mov    esi,0x401a20
  40157f:	bf 20 21 60 00       	mov    edi,0x602120
  401584:	e8 77 f9 ff ff       	call   400f00 <_ZStlsISt11char_traitsIcEERSt13basic_ostreamIcT_ES5_PKc@plt>
  401589:	be d0 0f 40 00       	mov    esi,0x400fd0
  40158e:	48 89 c7             	mov    rdi,rax
  401591:	e8 0a fa ff ff       	call   400fa0 <_ZNSolsEPFRSoS_E@plt>
  401596:	bb ff ff ff ff       	mov    ebx,0xffffffff
  40159b:	e9 b2 00 00 00       	jmp    401652 <main+0x4fc>
  4015a0:	48 c7 85 48 ff ff ff 	mov    QWORD PTR [rbp-0xb8],0x0
  4015a7:	00 00 00 00 
  4015ab:	48 8b 85 48 ff ff ff 	mov    rax,QWORD PTR [rbp-0xb8]
  4015b2:	48 3b 45 88          	cmp    rax,QWORD PTR [rbp-0x78]
  4015b6:	0f 83 91 00 00 00    	jae    40164d <main+0x4f7>
  4015bc:	48 8b 95 30 ff ff ff 	mov    rdx,QWORD PTR [rbp-0xd0]
  4015c3:	48 8b 85 48 ff ff ff 	mov    rax,QWORD PTR [rbp-0xb8]
  4015ca:	48 c1 e0 04          	shl    rax,0x4
  4015ce:	48 89 c1             	mov    rcx,rax
  4015d1:	48 c1 e1 04          	shl    rcx,0x4
  4015d5:	48 29 c1             	sub    rcx,rax
  4015d8:	48 89 c8             	mov    rax,rcx
  4015db:	48 01 d0             	add    rax,rdx
  4015de:	48 8d 48 42          	lea    rcx,[rax+0x42]
  4015e2:	48 8b 95 30 ff ff ff 	mov    rdx,QWORD PTR [rbp-0xd0]
  4015e9:	48 8b 85 48 ff ff ff 	mov    rax,QWORD PTR [rbp-0xb8]
  4015f0:	48 c1 e0 04          	shl    rax,0x4
  4015f4:	48 89 c6             	mov    rsi,rax
  4015f7:	48 c1 e6 04          	shl    rsi,0x4
  4015fb:	48 29 c6             	sub    rsi,rax
  4015fe:	48 89 f0             	mov    rax,rsi
  401601:	48 01 d0             	add    rax,rdx
  401604:	48 8d 50 22          	lea    rdx,[rax+0x22]
  401608:	48 8b b5 30 ff ff ff 	mov    rsi,QWORD PTR [rbp-0xd0]
  40160f:	48 8b 85 48 ff ff ff 	mov    rax,QWORD PTR [rbp-0xb8]
  401616:	48 c1 e0 04          	shl    rax,0x4
  40161a:	48 89 c7             	mov    rdi,rax
  40161d:	48 c1 e7 04          	shl    rdi,0x4
  401621:	48 29 c7             	sub    rdi,rax
  401624:	48 89 f8             	mov    rax,rdi
  401627:	48 01 f0             	add    rax,rsi
  40162a:	48 8b 40 08          	mov    rax,QWORD PTR [rax+0x8]
  40162e:	48 89 c6             	mov    rsi,rax
  401631:	bf 43 1a 40 00       	mov    edi,0x401a43
  401636:	b8 00 00 00 00       	mov    eax,0x0
  40163b:	e8 30 f8 ff ff       	call   400e70 <printf@plt>
  401640:	48 83 85 48 ff ff ff 	add    QWORD PTR [rbp-0xb8],0x1
  401647:	01 
  401648:	e9 5e ff ff ff       	jmp    4015ab <main+0x455>
  40164d:	bb 00 00 00 00       	mov    ebx,0x0
  401652:	48 8d 45 90          	lea    rax,[rbp-0x70]
  401656:	48 89 c7             	mov    rdi,rax
  401659:	e8 c2 f8 ff ff       	call   400f20 <_ZNSt7__cxx1112basic_stringIcSt11char_traitsIcESaIcEED1Ev@plt>
  40165e:	89 d8                	mov    eax,ebx
  401660:	48 8b 5d e8          	mov    rbx,QWORD PTR [rbp-0x18]
  401664:	64 48 33 1c 25 28 00 	xor    rbx,QWORD PTR fs:0x28
  40166b:	00 00 
  40166d:	74 21                	je     401690 <main+0x53a>
  40166f:	eb 1a                	jmp    40168b <main+0x535>
  401671:	48 89 c3             	mov    rbx,rax
  401674:	48 8d 45 90          	lea    rax,[rbp-0x70]
  401678:	48 89 c7             	mov    rdi,rax
  40167b:	e8 a0 f8 ff ff       	call   400f20 <_ZNSt7__cxx1112basic_stringIcSt11char_traitsIcESaIcEED1Ev@plt>
  401680:	48 89 d8             	mov    rax,rbx
  401683:	48 89 c7             	mov    rdi,rax
  401686:	e8 65 f9 ff ff       	call   400ff0 <_Unwind_Resume@plt>
  40168b:	e8 f0 f8 ff ff       	call   400f80 <__stack_chk_fail@plt>
  401690:	48 81 c4 e8 00 00 00 	add    rsp,0xe8
  401697:	5b                   	pop    rbx
  401698:	5d                   	pop    rbp
  401699:	c3                   	ret    

000000000040169a <_Z41__static_initialization_and_destruction_0ii>:
  40169a:	55                   	push   rbp
  40169b:	48 89 e5             	mov    rbp,rsp
  40169e:	48 83 ec 10          	sub    rsp,0x10
  4016a2:	89 7d fc             	mov    DWORD PTR [rbp-0x4],edi
  4016a5:	89 75 f8             	mov    DWORD PTR [rbp-0x8],esi
  4016a8:	83 7d fc 01          	cmp    DWORD PTR [rbp-0x4],0x1
  4016ac:	75 27                	jne    4016d5 <_Z41__static_initialization_and_destruction_0ii+0x3b>
  4016ae:	81 7d f8 ff ff 00 00 	cmp    DWORD PTR [rbp-0x8],0xffff
  4016b5:	75 1e                	jne    4016d5 <_Z41__static_initialization_and_destruction_0ii+0x3b>
  4016b7:	bf 31 22 60 00       	mov    edi,0x602231
  4016bc:	e8 cf f7 ff ff       	call   400e90 <_ZNSt8ios_base4InitC1Ev@plt>
  4016c1:	ba 10 21 60 00       	mov    edx,0x602110
  4016c6:	be 31 22 60 00       	mov    esi,0x602231
  4016cb:	bf f0 0e 40 00       	mov    edi,0x400ef0
  4016d0:	e8 fb f7 ff ff       	call   400ed0 <__cxa_atexit@plt>
  4016d5:	90                   	nop
  4016d6:	c9                   	leave  
  4016d7:	c3                   	ret    

00000000004016d8 <_GLOBAL__sub_I_main>:
  4016d8:	55                   	push   rbp
  4016d9:	48 89 e5             	mov    rbp,rsp
  4016dc:	be ff ff 00 00       	mov    esi,0xffff
  4016e1:	bf 01 00 00 00       	mov    edi,0x1
  4016e6:	e8 af ff ff ff       	call   40169a <_Z41__static_initialization_and_destruction_0ii>
  4016eb:	5d                   	pop    rbp
  4016ec:	c3                   	ret    

00000000004016ed <_ZNSt7__cxx115stoulERKNS_12basic_stringIcSt11char_traitsIcESaIcEEEPmi>:
  4016ed:	55                   	push   rbp
  4016ee:	48 89 e5             	mov    rbp,rsp
  4016f1:	48 83 ec 20          	sub    rsp,0x20
  4016f5:	48 89 7d f8          	mov    QWORD PTR [rbp-0x8],rdi
  4016f9:	48 89 75 f0          	mov    QWORD PTR [rbp-0x10],rsi
  4016fd:	89 55 ec             	mov    DWORD PTR [rbp-0x14],edx
  401700:	48 8b 45 f8          	mov    rax,QWORD PTR [rbp-0x8]
  401704:	48 89 c7             	mov    rdi,rax
  401707:	e8 b4 f8 ff ff       	call   400fc0 <_ZNKSt7__cxx1112basic_stringIcSt11char_traitsIcESaIcEE5c_strEv@plt>
  40170c:	48 89 c6             	mov    rsi,rax
  40170f:	8b 55 ec             	mov    edx,DWORD PTR [rbp-0x14]
  401712:	48 8b 45 f0          	mov    rax,QWORD PTR [rbp-0x10]
  401716:	41 89 d0             	mov    r8d,edx
  401719:	48 89 c1             	mov    rcx,rax
  40171c:	48 89 f2             	mov    rdx,rsi
  40171f:	be 79 18 40 00       	mov    esi,0x401879
  401724:	bf 10 10 40 00       	mov    edi,0x401010
  401729:	e8 02 00 00 00       	call   401730 <_ZN9__gnu_cxx6__stoaImmcIiEEET0_PFT_PKT1_PPS3_DpT2_EPKcS5_PmS9_>
  40172e:	c9                   	leave  
  40172f:	c3                   	ret    

0000000000401730 <_ZN9__gnu_cxx6__stoaImmcIiEEET0_PFT_PKT1_PPS3_DpT2_EPKcS5_PmS9_>:
  401730:	55                   	push   rbp
  401731:	48 89 e5             	mov    rbp,rsp
  401734:	48 83 ec 50          	sub    rsp,0x50
  401738:	48 89 7d d8          	mov    QWORD PTR [rbp-0x28],rdi
  40173c:	48 89 75 d0          	mov    QWORD PTR [rbp-0x30],rsi
  401740:	48 89 55 c8          	mov    QWORD PTR [rbp-0x38],rdx
  401744:	48 89 4d c0          	mov    QWORD PTR [rbp-0x40],rcx
  401748:	44 89 45 bc          	mov    DWORD PTR [rbp-0x44],r8d
  40174c:	64 48 8b 04 25 28 00 	mov    rax,QWORD PTR fs:0x28
  401753:	00 00 
  401755:	48 89 45 f8          	mov    QWORD PTR [rbp-0x8],rax
  401759:	31 c0                	xor    eax,eax
  40175b:	e8 00 f8 ff ff       	call   400f60 <__errno_location@plt>
  401760:	c7 00 00 00 00 00    	mov    DWORD PTR [rax],0x0
  401766:	8b 55 bc             	mov    edx,DWORD PTR [rbp-0x44]
  401769:	48 8d 75 e0          	lea    rsi,[rbp-0x20]
  40176d:	48 8b 4d c8          	mov    rcx,QWORD PTR [rbp-0x38]
  401771:	48 8b 45 d8          	mov    rax,QWORD PTR [rbp-0x28]
  401775:	48 89 cf             	mov    rdi,rcx
  401778:	ff d0                	call   rax
  40177a:	48 89 45 e8          	mov    QWORD PTR [rbp-0x18],rax
  40177e:	48 8b 45 e0          	mov    rax,QWORD PTR [rbp-0x20]
  401782:	48 3b 45 c8          	cmp    rax,QWORD PTR [rbp-0x38]
  401786:	75 0c                	jne    401794 <_ZN9__gnu_cxx6__stoaImmcIiEEET0_PFT_PKT1_PPS3_DpT2_EPKcS5_PmS9_+0x64>
  401788:	48 8b 45 d0          	mov    rax,QWORD PTR [rbp-0x30]
  40178c:	48 89 c7             	mov    rdi,rax
  40178f:	e8 2c f7 ff ff       	call   400ec0 <_ZSt24__throw_invalid_argumentPKc@plt>
  401794:	e8 c7 f7 ff ff       	call   400f60 <__errno_location@plt>
  401799:	8b 00                	mov    eax,DWORD PTR [rax]
  40179b:	83 f8 22             	cmp    eax,0x22
  40179e:	75 0c                	jne    4017ac <_ZN9__gnu_cxx6__stoaImmcIiEEET0_PFT_PKT1_PPS3_DpT2_EPKcS5_PmS9_+0x7c>
  4017a0:	48 8b 45 d0          	mov    rax,QWORD PTR [rbp-0x30]
  4017a4:	48 89 c7             	mov    rdi,rax
  4017a7:	e8 34 f7 ff ff       	call   400ee0 <_ZSt20__throw_out_of_rangePKc@plt>
  4017ac:	48 8b 45 e8          	mov    rax,QWORD PTR [rbp-0x18]
  4017b0:	48 89 45 f0          	mov    QWORD PTR [rbp-0x10],rax
  4017b4:	48 83 7d c0 00       	cmp    QWORD PTR [rbp-0x40],0x0
  4017b9:	74 1b                	je     4017d6 <_ZN9__gnu_cxx6__stoaImmcIiEEET0_PFT_PKT1_PPS3_DpT2_EPKcS5_PmS9_+0xa6>
  4017bb:	48 8b 45 e0          	mov    rax,QWORD PTR [rbp-0x20]
  4017bf:	48 89 c2             	mov    rdx,rax
  4017c2:	48 8b 45 c8          	mov    rax,QWORD PTR [rbp-0x38]
  4017c6:	48 29 c2             	sub    rdx,rax
  4017c9:	48 89 d0             	mov    rax,rdx
  4017cc:	48 89 c2             	mov    rdx,rax
  4017cf:	48 8b 45 c0          	mov    rax,QWORD PTR [rbp-0x40]
  4017d3:	48 89 10             	mov    QWORD PTR [rax],rdx
  4017d6:	48 8b 45 f0          	mov    rax,QWORD PTR [rbp-0x10]
  4017da:	48 8b 4d f8          	mov    rcx,QWORD PTR [rbp-0x8]
  4017de:	64 48 33 0c 25 28 00 	xor    rcx,QWORD PTR fs:0x28
  4017e5:	00 00 
  4017e7:	74 05                	je     4017ee <_ZN9__gnu_cxx6__stoaImmcIiEEET0_PFT_PKT1_PPS3_DpT2_EPKcS5_PmS9_+0xbe>
  4017e9:	e8 92 f7 ff ff       	call   400f80 <__stack_chk_fail@plt>
  4017ee:	c9                   	leave  
  4017ef:	c3                   	ret    

00000000004017f0 <__libc_csu_init>:
  4017f0:	41 57                	push   r15
  4017f2:	41 56                	push   r14
  4017f4:	41 89 ff             	mov    r15d,edi
  4017f7:	41 55                	push   r13
  4017f9:	41 54                	push   r12
  4017fb:	4c 8d 25 d6 05 20 00 	lea    r12,[rip+0x2005d6]        # 601dd8 <__frame_dummy_init_array_entry>
  401802:	55                   	push   rbp
  401803:	48 8d 2d de 05 20 00 	lea    rbp,[rip+0x2005de]        # 601de8 <__init_array_end>
  40180a:	53                   	push   rbx
  40180b:	49 89 f6             	mov    r14,rsi
  40180e:	49 89 d5             	mov    r13,rdx
  401811:	4c 29 e5             	sub    rbp,r12
  401814:	48 83 ec 08          	sub    rsp,0x8
  401818:	48 c1 fd 03          	sar    rbp,0x3
  40181c:	e8 17 f6 ff ff       	call   400e38 <_init>
  401821:	48 85 ed             	test   rbp,rbp
  401824:	74 20                	je     401846 <__libc_csu_init+0x56>
  401826:	31 db                	xor    ebx,ebx
  401828:	0f 1f 84 00 00 00 00 	nop    DWORD PTR [rax+rax*1+0x0]
  40182f:	00 
  401830:	4c 89 ea             	mov    rdx,r13
  401833:	4c 89 f6             	mov    rsi,r14
  401836:	44 89 ff             	mov    edi,r15d
  401839:	41 ff 14 dc          	call   QWORD PTR [r12+rbx*8]
  40183d:	48 83 c3 01          	add    rbx,0x1
  401841:	48 39 eb             	cmp    rbx,rbp
  401844:	75 ea                	jne    401830 <__libc_csu_init+0x40>
  401846:	48 83 c4 08          	add    rsp,0x8
  40184a:	5b                   	pop    rbx
  40184b:	5d                   	pop    rbp
  40184c:	41 5c                	pop    r12
  40184e:	41 5d                	pop    r13
  401850:	41 5e                	pop    r14
  401852:	41 5f                	pop    r15
  401854:	c3                   	ret    
  401855:	90                   	nop
  401856:	66 2e 0f 1f 84 00 00 	nop    WORD PTR cs:[rax+rax*1+0x0]
  40185d:	00 00 00 

0000000000401860 <__libc_csu_fini>:
  401860:	f3 c3                	repz ret 

Disassembly of section .fini:

0000000000401864 <_fini>:
  401864:	48 83 ec 08          	sub    rsp,0x8
  401868:	48 83 c4 08          	add    rsp,0x8
  40186c:	c3                   	ret    
